; Function Attrs: nounwind uwtable
define ptr @l_Lean_Meta_ArgsPacker_Unary_pack___boxed(ptr noundef %0, ptr noundef %1) local_unnamed_addr #1 {
  %3 = tail call zeroext i8 @l_Array_isEmpty___rarg(ptr noundef %1) #7
  %4 = icmp eq i8 %3, 0
  br i1 %4, label %5, label %7

5:                                                ; preds = %2
  %6 = tail call ptr @l_Lean_Meta_ArgsPacker_Unary_pack_go(ptr noundef %1, ptr noundef nonnull inttoptr (i64 1 to ptr), ptr noundef %0)
  br label %l_Lean_Meta_ArgsPacker_Unary_pack.exit

7:                                                ; preds = %2
  %8 = load ptr, ptr @l_Lean_Meta_ArgsPacker_Unary_pack___closed__3, align 8, !tbaa !12
  br label %l_Lean_Meta_ArgsPacker_Unary_pack.exit

l_Lean_Meta_ArgsPacker_Unary_pack.exit:           ; preds = %5, %7
  %.0.i = phi ptr [ %6, %5 ], [ %8, %7 ]
  %9 = ptrtoint ptr %1 to i64
  %10 = and i64 %9, 1
  %.not = icmp eq i64 %10, 0
  br i1 %.not, label %11, label %lean_dec.exit5

11:                                               ; preds = %l_Lean_Meta_ArgsPacker_Unary_pack.exit
  %12 = load i32, ptr %1, align 4, !tbaa !8
  %13 = icmp sgt i32 %12, 1
  br i1 %13, label %14, label %16, !prof !11

14:                                               ; preds = %11
  %15 = add nsw i32 %12, -1
  store i32 %15, ptr %1, align 4, !tbaa !8
  br label %lean_dec.exit5

16:                                               ; preds = %11
  %.not.i = icmp eq i32 %12, 0
  br i1 %.not.i, label %lean_dec.exit5, label %17

17:                                               ; preds = %16
  tail call void @lean_dec_ref_cold(ptr noundef nonnull %1) #7
  br label %lean_dec.exit5

lean_dec.exit5:                                   ; preds = %17, %16, %14, %l_Lean_Meta_ArgsPacker_Unary_pack.exit
  %18 = ptrtoint ptr %0 to i64
  %19 = and i64 %18, 1
  %.not8 = icmp eq i64 %19, 0
  br i1 %.not8, label %20, label %lean_dec.exit

20:                                               ; preds = %lean_dec.exit5
  %21 = load i32, ptr %0, align 4, !tbaa !8
  %22 = icmp sgt i32 %21, 1
  br i1 %22, label %23, label %25, !prof !11

23:                                               ; preds = %20
  %24 = add nsw i32 %21, -1
  store i32 %24, ptr %0, align 4, !tbaa !8
  br label %lean_dec.exit

25:                                               ; preds = %20
  %.not.i6 = icmp eq i32 %21, 0
  br i1 %.not.i6, label %lean_dec.exit, label %26

26:                                               ; preds = %25
  tail call void @lean_dec_ref_cold(ptr noundef nonnull %0) #7
  br label %lean_dec.exit

lean_dec.exit:                                    ; preds = %26, %25, %23, %lean_dec.exit5
  ret ptr %.0.i
}